; ModuleID = '22/467.c'
source_filename = "22/467.c"
target datalayout = "e-m:e-p270:32:32-p271:32:32-p272:64:64-i64:64-f80:128-n8:16:32:64-S128"
target triple = "x86_64-pc-linux-gnu"

@.str = private unnamed_addr constant [3 x i8] c"%d\00", align 1
@.str.1 = private unnamed_addr constant [3 x i8] c"%c\00", align 1
@.str.2 = private unnamed_addr constant [3 x i8] c"No\00", align 1

; Function Attrs: noinline nounwind uwtable
define dso_local i32 @main(i32 %0, i8** %1) #0 {
  %3 = alloca i32, align 4
  %4 = alloca i32, align 4
  %5 = alloca i8**, align 8
  %6 = alloca [1 x i8], align 1
  %7 = alloca [300 x i32], align 16
  %8 = alloca i32, align 4
  %9 = alloca i32, align 4
  %10 = alloca i32, align 4
  %11 = alloca i32, align 4
  store i32 0, i32* %3, align 4
  store i32 %0, i32* %4, align 4
  store i8** %1, i8*** %5, align 8
  store i32 0, i32* %8, align 4
  store i32 0, i32* %9, align 4
  br label %12

12:                                               ; preds = %32, %2
  %13 = load i32, i32* %8, align 4
  %14 = icmp eq i32 %13, 0
  br i1 %14, label %15, label %33

15:                                               ; preds = %12
  %16 = load i32, i32* %9, align 4
  %17 = sext i32 %16 to i64
  %18 = getelementptr inbounds [300 x i32], [300 x i32]* %7, i64 0, i64 %17
  %19 = call i32 (i8*, ...) @__isoc99_scanf(i8* getelementptr inbounds ([3 x i8], [3 x i8]* @.str, i64 0, i64 0), i32* %18)
  %20 = getelementptr inbounds [1 x i8], [1 x i8]* %6, i64 0, i64 0
  %21 = call i32 (i8*, ...) @__isoc99_scanf(i8* getelementptr inbounds ([3 x i8], [3 x i8]* @.str.1, i64 0, i64 0), i8* %20)
  %22 = getelementptr inbounds [1 x i8], [1 x i8]* %6, i64 0, i64 0
  %23 = load i8, i8* %22, align 1
  %24 = sext i8 %23 to i32
  %25 = icmp eq i32 %24, 10
  br i1 %25, label %26, label %29

26:                                               ; preds = %15
  store i32 1, i32* %8, align 4
  %27 = load i32, i32* %9, align 4
  %28 = add nsw i32 %27, 1
  store i32 %28, i32* %9, align 4
  br label %32

29:                                               ; preds = %15
  %30 = load i32, i32* %9, align 4
  %31 = add nsw i32 %30, 1
  store i32 %31, i32* %9, align 4
  br label %32

32:                                               ; preds = %29, %26
  br label %12

33:                                               ; preds = %12
  store i32 0, i32* %8, align 4
  br label %34

34:                                               ; preds = %77, %33
  %35 = load i32, i32* %8, align 4
  %36 = load i32, i32* %9, align 4
  %37 = icmp slt i32 %35, %36
  br i1 %37, label %38, label %80

38:                                               ; preds = %34
  store i32 1, i32* %10, align 4
  br label %39

39:                                               ; preds = %73, %38
  %40 = load i32, i32* %10, align 4
  %41 = load i32, i32* %9, align 4
  %42 = icmp slt i32 %40, %41
  br i1 %42, label %43, label %76

43:                                               ; preds = %39
  %44 = load i32, i32* %10, align 4
  %45 = sub nsw i32 %44, 1
  %46 = sext i32 %45 to i64
  %47 = getelementptr inbounds [300 x i32], [300 x i32]* %7, i64 0, i64 %46
  %48 = load i32, i32* %47, align 4
  %49 = load i32, i32* %10, align 4
  %50 = sext i32 %49 to i64
  %51 = getelementptr inbounds [300 x i32], [300 x i32]* %7, i64 0, i64 %50
  %52 = load i32, i32* %51, align 4
  %53 = icmp slt i32 %48, %52
  br i1 %53, label %54, label %72

54:                                               ; preds = %43
  %55 = load i32, i32* %10, align 4
  %56 = sub nsw i32 %55, 1
  %57 = sext i32 %56 to i64
  %58 = getelementptr inbounds [300 x i32], [300 x i32]* %7, i64 0, i64 %57
  %59 = load i32, i32* %58, align 4
  store i32 %59, i32* %11, align 4
  %60 = load i32, i32* %10, align 4
  %61 = sext i32 %60 to i64
  %62 = getelementptr inbounds [300 x i32], [300 x i32]* %7, i64 0, i64 %61
  %63 = load i32, i32* %62, align 4
  %64 = load i32, i32* %10, align 4
  %65 = sub nsw i32 %64, 1
  %66 = sext i32 %65 to i64
  %67 = getelementptr inbounds [300 x i32], [300 x i32]* %7, i64 0, i64 %66
  store i32 %63, i32* %67, align 4
  %68 = load i32, i32* %11, align 4
  %69 = load i32, i32* %10, align 4
  %70 = sext i32 %69 to i64
  %71 = getelementptr inbounds [300 x i32], [300 x i32]* %7, i64 0, i64 %70
  store i32 %68, i32* %71, align 4
  br label %72

72:                                               ; preds = %54, %43
  br label %73

73:                                               ; preds = %72
  %74 = load i32, i32* %10, align 4
  %75 = add nsw i32 %74, 1
  store i32 %75, i32* %10, align 4
  br label %39

76:                                               ; preds = %39
  br label %77

77:                                               ; preds = %76
  %78 = load i32, i32* %8, align 4
  %79 = add nsw i32 %78, 1
  store i32 %79, i32* %8, align 4
  br label %34

80:                                               ; preds = %34
  store i32 0, i32* %10, align 4
  store i32 1, i32* %8, align 4
  br label %81

81:                                               ; preds = %105, %80
  %82 = load i32, i32* %8, align 4
  %83 = load i32, i32* %9, align 4
  %84 = icmp slt i32 %82, %83
  br i1 %84, label %85, label %108

85:                                               ; preds = %81
  %86 = load i32, i32* %8, align 4
  %87 = sext i32 %86 to i64
  %88 = getelementptr inbounds [300 x i32], [300 x i32]* %7, i64 0, i64 %87
  %89 = load i32, i32* %88, align 4
  %90 = load i32, i32* %8, align 4
  %91 = sub nsw i32 %90, 1
  %92 = sext i32 %91 to i64
  %93 = getelementptr inbounds [300 x i32], [300 x i32]* %7, i64 0, i64 %92
  %94 = load i32, i32* %93, align 4
  %95 = icmp eq i32 %89, %94
  br i1 %95, label %96, label %97

96:                                               ; preds = %85
  br label %104

97:                                               ; preds = %85
  %98 = load i32, i32* %8, align 4
  %99 = sext i32 %98 to i64
  %100 = getelementptr inbounds [300 x i32], [300 x i32]* %7, i64 0, i64 %99
  %101 = load i32, i32* %100, align 4
  %102 = call i32 (i8*, ...) @printf(i8* getelementptr inbounds ([3 x i8], [3 x i8]* @.str, i64 0, i64 0), i32 %101)
  %103 = load i32, i32* %9, align 4
  store i32 %103, i32* %8, align 4
  store i32 1, i32* %10, align 4
  br label %104

104:                                              ; preds = %97, %96
  br label %105

105:                                              ; preds = %104
  %106 = load i32, i32* %8, align 4
  %107 = add nsw i32 %106, 1
  store i32 %107, i32* %8, align 4
  br label %81

108:                                              ; preds = %81
  %109 = load i32, i32* %10, align 4
  %110 = icmp eq i32 %109, 0
  br i1 %110, label %111, label %113

111:                                              ; preds = %108
  %112 = call i32 (i8*, ...) @printf(i8* getelementptr inbounds ([3 x i8], [3 x i8]* @.str.2, i64 0, i64 0))
  br label %113

113:                                              ; preds = %111, %108
  ret i32 0
}

declare dso_local i32 @__isoc99_scanf(i8*, ...) #1

declare dso_local i32 @printf(i8*, ...) #1


!llvm.module.flags = !{!0}
!llvm.ident = !{!1}

!0 = !{i32 1, !"wchar_size", i32 4}
!1 = !{!"clang version 10.0.0-4ubuntu1 "}
